target datalayout = "e-m:e-p270:32:32-p271:32:32-p272:64:64-i64:64-i128:128-f80:128-n8:16:32:64-S128"
target triple = "x86_64-pc-linux-gnu"

%struct.siv128_context = type { %union.siv_block_u, %union.siv_block_u, ptr, ptr, ptr, i32, i32 }
%union.siv_block_u = type { [2 x i64] }

; Function Attrs: inlinehint nounwind uwtable
define internal i32 @rotr8(i32 noundef %0) #5 {
  %2 = alloca i32, align 4
  store i32 %0, ptr %2, align 4, !tbaa !8
  %3 = load i32, ptr %2, align 4, !tbaa !8
  %4 = lshr i32 %3, 8
  %5 = load i32, ptr %2, align 4, !tbaa !8
  %6 = shl i32 %5, 24
  %7 = or i32 %4, %6
  ret i32 %7
}

; Function Attrs: inlinehint nounwind uwtable
define internal i32 @rotl8(i32 noundef %0) #5 {
  %2 = alloca i32, align 4
  store i32 %0, ptr %2, align 4, !tbaa !8
  %3 = load i32, ptr %2, align 4, !tbaa !8
  %4 = shl i32 %3, 8
  %5 = load i32, ptr %2, align 4, !tbaa !8
  %6 = lshr i32 %5, 24
  %7 = or i32 %4, %6
  ret i32 %7
}

; Function Attrs: inlinehint nounwind uwtable
define internal i64 @byteswap8(i64 noundef %0) #5 {
  %2 = alloca i64, align 8
  %3 = alloca i32, align 4
  %4 = alloca i32, align 4
  store i64 %0, ptr %2, align 8, !tbaa !16
  call void @llvm.lifetime.start.p0(i64 4, ptr %3) #6
  %5 = load i64, ptr %2, align 8, !tbaa !16
  %6 = lshr i64 %5, 32
  %7 = trunc i64 %6 to i32
  store i32 %7, ptr %3, align 4, !tbaa !8
  call void @llvm.lifetime.start.p0(i64 4, ptr %4) #6
  %8 = load i64, ptr %2, align 8, !tbaa !16
  %9 = trunc i64 %8 to i32
  store i32 %9, ptr %4, align 4, !tbaa !8
  %10 = load i32, ptr %3, align 4, !tbaa !8
  %11 = call i32 @rotl8(i32 noundef %10)
  %12 = and i32 %11, 16711935
  %13 = load i32, ptr %3, align 4, !tbaa !8
  %14 = call i32 @rotr8(i32 noundef %13)
  %15 = and i32 %14, -16711936
  %16 = or i32 %12, %15
  store i32 %16, ptr %3, align 4, !tbaa !8
  %17 = load i32, ptr %4, align 4, !tbaa !8
  %18 = call i32 @rotl8(i32 noundef %17)
  %19 = and i32 %18, 16711935
  %20 = load i32, ptr %4, align 4, !tbaa !8
  %21 = call i32 @rotr8(i32 noundef %20)
  %22 = and i32 %21, -16711936
  %23 = or i32 %19, %22
  store i32 %23, ptr %4, align 4, !tbaa !8
  %24 = load i32, ptr %4, align 4, !tbaa !8
  %25 = zext i32 %24 to i64
  %26 = shl i64 %25, 32
  %27 = load i32, ptr %3, align 4, !tbaa !8
  %28 = zext i32 %27 to i64
  %29 = or i64 %26, %28
  call void @llvm.lifetime.end.p0(i64 4, ptr %4) #6
  call void @llvm.lifetime.end.p0(i64 4, ptr %3) #6
  ret i64 %29
}

; Function Attrs: inlinehint nounwind uwtable
define internal void @siv128_putword(ptr noundef %0, i64 noundef %1, i64 noundef %2) #5 {
  %4 = alloca ptr, align 8
  %5 = alloca i64, align 8
  %6 = alloca i64, align 8
  %7 = alloca i32, align 4
  store ptr %0, ptr %4, align 8, !tbaa !30
  store i64 %1, ptr %5, align 8, !tbaa !16
  store i64 %2, ptr %6, align 8, !tbaa !16
  call void @llvm.lifetime.start.p0(i64 4, ptr %7) #6
  store i32 1, ptr %7, align 4, !tbaa !8
  %8 = load i64, ptr %6, align 8, !tbaa !16
  %9 = call i64 @byteswap8(i64 noundef %8)
  %10 = load ptr, ptr %4, align 8, !tbaa !30
  %11 = load i64, ptr %5, align 8, !tbaa !16
  %12 = getelementptr inbounds nuw [2 x i64], ptr %10, i64 0, i64 %11
  store i64 %9, ptr %12, align 8, !tbaa !32
  call void @llvm.lifetime.end.p0(i64 4, ptr %7) #6
  ret void
}

; Function Attrs: inlinehint nounwind uwtable
define internal i64 @siv128_getword(ptr noundef %0, i64 noundef %1) #5 {
  %3 = alloca ptr, align 8
  %4 = alloca i64, align 8
  %5 = alloca i32, align 4
  store ptr %0, ptr %3, align 8, !tbaa !30
  store i64 %1, ptr %4, align 8, !tbaa !16
  call void @llvm.lifetime.start.p0(i64 4, ptr %5) #6
  store i32 1, ptr %5, align 4, !tbaa !8
  %6 = load ptr, ptr %3, align 8, !tbaa !30
  %7 = load i64, ptr %4, align 8, !tbaa !16
  %8 = getelementptr inbounds nuw [2 x i64], ptr %6, i64 0, i64 %7
  %9 = load i64, ptr %8, align 8, !tbaa !32
  %10 = call i64 @byteswap8(i64 noundef %9)
  call void @llvm.lifetime.end.p0(i64 4, ptr %5) #6
  ret i64 %10
}

; Function Attrs: inlinehint nounwind uwtable
define internal void @siv128_dbl(ptr noundef %0) #5 {
  %2 = alloca ptr, align 8
  %3 = alloca i64, align 8
  %4 = alloca i64, align 8
  %5 = alloca i64, align 8
  %6 = alloca i64, align 8
  %7 = alloca i64, align 8
  %8 = alloca i64, align 8
  store ptr %0, ptr %2, align 8, !tbaa !30
  call void @llvm.lifetime.start.p0(i64 8, ptr %3) #6
  %9 = load ptr, ptr %2, align 8, !tbaa !30
  %10 = call i64 @siv128_getword(ptr noundef %9, i64 noundef 0)
  store i64 %10, ptr %3, align 8, !tbaa !16
  call void @llvm.lifetime.start.p0(i64 8, ptr %4) #6
  %11 = load ptr, ptr %2, align 8, !tbaa !30
  %12 = call i64 @siv128_getword(ptr noundef %11, i64 noundef 1)
  store i64 %12, ptr %4, align 8, !tbaa !16
  call void @llvm.lifetime.start.p0(i64 8, ptr %5) #6
  %13 = load i64, ptr %3, align 8, !tbaa !16
  %14 = and i64 %13, -9223372036854775808
  store i64 %14, ptr %5, align 8, !tbaa !16
  call void @llvm.lifetime.start.p0(i64 8, ptr %6) #6
  %15 = load i64, ptr %4, align 8, !tbaa !16
  %16 = and i64 %15, -9223372036854775808
  store i64 %16, ptr %6, align 8, !tbaa !16
  call void @llvm.lifetime.start.p0(i64 8, ptr %7) #6
  %17 = load i64, ptr %5, align 8, !tbaa !16
  %18 = lshr i64 %17, 63
  %19 = sub nsw i64 0, %18
  %20 = and i64 %19, 135
  store i64 %20, ptr %7, align 8, !tbaa !16
  call void @llvm.lifetime.start.p0(i64 8, ptr %8) #6
  %21 = load i64, ptr %6, align 8, !tbaa !16
  %22 = lshr i64 %21, 63
  store i64 %22, ptr %8, align 8, !tbaa !16
  %23 = load i64, ptr %3, align 8, !tbaa !16
  %24 = shl i64 %23, 1
  %25 = load i64, ptr %8, align 8, !tbaa !16
  %26 = or i64 %24, %25
  store i64 %26, ptr %3, align 8, !tbaa !16
  %27 = load i64, ptr %4, align 8, !tbaa !16
  %28 = shl i64 %27, 1
  %29 = load i64, ptr %7, align 8, !tbaa !16
  %30 = xor i64 %28, %29
  store i64 %30, ptr %4, align 8, !tbaa !16
  %31 = load ptr, ptr %2, align 8, !tbaa !30
  %32 = load i64, ptr %3, align 8, !tbaa !16
  call void @siv128_putword(ptr noundef %31, i64 noundef 0, i64 noundef %32)
  %33 = load ptr, ptr %2, align 8, !tbaa !30
  %34 = load i64, ptr %4, align 8, !tbaa !16
  call void @siv128_putword(ptr noundef %33, i64 noundef 1, i64 noundef %34)
  call void @llvm.lifetime.end.p0(i64 8, ptr %8) #6
  call void @llvm.lifetime.end.p0(i64 8, ptr %7) #6
  call void @llvm.lifetime.end.p0(i64 8, ptr %6) #6
  call void @llvm.lifetime.end.p0(i64 8, ptr %5) #6
  call void @llvm.lifetime.end.p0(i64 8, ptr %4) #6
  call void @llvm.lifetime.end.p0(i64 8, ptr %3) #6
  ret void
}

; Function Attrs: inlinehint nounwind uwtable
define internal void @siv128_xorblock(ptr noundef %0, ptr noundef %1) #5 {
  %3 = alloca ptr, align 8
  %4 = alloca ptr, align 8
  store ptr %0, ptr %3, align 8, !tbaa !30
  store ptr %1, ptr %4, align 8, !tbaa !30
  %5 = load ptr, ptr %4, align 8, !tbaa !30
  %6 = getelementptr inbounds [2 x i64], ptr %5, i64 0, i64 0
  %7 = load i64, ptr %6, align 8, !tbaa !32
  %8 = load ptr, ptr %3, align 8, !tbaa !30
  %9 = getelementptr inbounds [2 x i64], ptr %8, i64 0, i64 0
  %10 = load i64, ptr %9, align 8, !tbaa !32
  %11 = xor i64 %10, %7
  store i64 %11, ptr %9, align 8, !tbaa !32
  %12 = load ptr, ptr %4, align 8, !tbaa !30
  %13 = getelementptr inbounds [2 x i64], ptr %12, i64 0, i64 1
  %14 = load i64, ptr %13, align 8, !tbaa !32
  %15 = load ptr, ptr %3, align 8, !tbaa !30
  %16 = getelementptr inbounds [2 x i64], ptr %15, i64 0, i64 1
  %17 = load i64, ptr %16, align 8, !tbaa !32
  %18 = xor i64 %17, %14
  store i64 %18, ptr %16, align 8, !tbaa !32
  ret void
}

; Function Attrs: inlinehint nounwind uwtable
define internal i32 @siv128_do_s2v_p(ptr noundef %0, ptr noundef %1, ptr noundef %2, i64 noundef %3) #5 {
  %5 = alloca i32, align 4
  %6 = alloca ptr, align 8
  %7 = alloca ptr, align 8
  %8 = alloca ptr, align 8
  %9 = alloca i64, align 8
  %10 = alloca %union.siv_block_u, align 8
  %11 = alloca i64, align 8
  %12 = alloca ptr, align 8
  %13 = alloca i32, align 4
  %14 = alloca i32, align 4
  store ptr %0, ptr %6, align 8, !tbaa !14
  store ptr %1, ptr %7, align 8, !tbaa !30
  store ptr %2, ptr %8, align 8, !tbaa !3
  store i64 %3, ptr %9, align 8, !tbaa !16
  call void @llvm.lifetime.start.p0(i64 16, ptr %10) #6
  call void @llvm.lifetime.start.p0(i64 8, ptr %11) #6
  store i64 16, ptr %11, align 8, !tbaa !16
  call void @llvm.lifetime.start.p0(i64 8, ptr %12) #6
  call void @llvm.lifetime.start.p0(i64 4, ptr %13) #6
  store i32 0, ptr %13, align 4, !tbaa !8
  %15 = load ptr, ptr %6, align 8, !tbaa !14
  %16 = getelementptr inbounds nuw %struct.siv128_context, ptr %15, i32 0, i32 4
  %17 = load ptr, ptr %16, align 8, !tbaa !24
  %18 = call ptr @EVP_MAC_CTX_dup(ptr noundef %17)
  store ptr %18, ptr %12, align 8, !tbaa !18
  %19 = load ptr, ptr %12, align 8, !tbaa !18
  %20 = icmp eq ptr %19, null
  br i1 %20, label %21, label %22

21:                                               ; preds = %4
  store i32 0, ptr %5, align 4
  store i32 1, ptr %14, align 4
  br label %75

22:                                               ; preds = %4
  %23 = load i64, ptr %9, align 8, !tbaa !16
  %24 = icmp uge i64 %23, 16
  br i1 %24, label %25, label %46

25:                                               ; preds = %22
  %26 = load ptr, ptr %12, align 8, !tbaa !18
  %27 = load ptr, ptr %8, align 8, !tbaa !3
  %28 = load i64, ptr %9, align 8, !tbaa !16
  %29 = sub i64 %28, 16
  %30 = call i32 @EVP_MAC_update(ptr noundef %26, ptr noundef %27, i64 noundef %29)
  %31 = icmp ne i32 %30, 0
  br i1 %31, label %33, label %32

32:                                               ; preds = %25
  br label %72

33:                                               ; preds = %25
  %34 = load ptr, ptr %8, align 8, !tbaa !3
  %35 = load i64, ptr %9, align 8, !tbaa !16
  %36 = sub i64 %35, 16
  %37 = getelementptr inbounds nuw i8, ptr %34, i64 %36
  call void @llvm.memcpy.p0.p0.i64(ptr align 8 %10, ptr align 1 %37, i64 16, i1 false)
  %38 = load ptr, ptr %6, align 8, !tbaa !14
  %39 = getelementptr inbounds nuw %struct.siv128_context, ptr %38, i32 0, i32 0
  call void @siv128_xorblock(ptr noundef %10, ptr noundef %39)
  %40 = load ptr, ptr %12, align 8, !tbaa !18
  %41 = getelementptr inbounds [16 x i8], ptr %10, i64 0, i64 0
  %42 = call i32 @EVP_MAC_update(ptr noundef %40, ptr noundef %41, i64 noundef 16)
  %43 = icmp ne i32 %42, 0
  br i1 %43, label %45, label %44

44:                                               ; preds = %33
  br label %72

45:                                               ; preds = %33
  br label %61

46:                                               ; preds = %22
  call void @llvm.memset.p0.i64(ptr align 8 %10, i8 0, i64 16, i1 false)
  %47 = load ptr, ptr %8, align 8, !tbaa !3
  %48 = load i64, ptr %9, align 8, !tbaa !16
  call void @llvm.memcpy.p0.p0.i64(ptr align 8 %10, ptr align 1 %47, i64 %48, i1 false)
  %49 = load i64, ptr %9, align 8, !tbaa !16
  %50 = getelementptr inbounds nuw [16 x i8], ptr %10, i64 0, i64 %49
  store i8 -128, ptr %50, align 1, !tbaa !32
  %51 = load ptr, ptr %6, align 8, !tbaa !14
  %52 = getelementptr inbounds nuw %struct.siv128_context, ptr %51, i32 0, i32 0
  call void @siv128_dbl(ptr noundef %52)
  %53 = load ptr, ptr %6, align 8, !tbaa !14
  %54 = getelementptr inbounds nuw %struct.siv128_context, ptr %53, i32 0, i32 0
  call void @siv128_xorblock(ptr noundef %10, ptr noundef %54)
  %55 = load ptr, ptr %12, align 8, !tbaa !18
  %56 = getelementptr inbounds [16 x i8], ptr %10, i64 0, i64 0
  %57 = call i32 @EVP_MAC_update(ptr noundef %55, ptr noundef %56, i64 noundef 16)
  %58 = icmp ne i32 %57, 0
  br i1 %58, label %60, label %59

59:                                               ; preds = %46
  br label %72

60:                                               ; preds = %46
  br label %61

61:                                               ; preds = %60, %45
  %62 = load ptr, ptr %12, align 8, !tbaa !18
  %63 = load ptr, ptr %7, align 8, !tbaa !30
  %64 = getelementptr inbounds [16 x i8], ptr %63, i64 0, i64 0
  %65 = call i32 @EVP_MAC_final(ptr noundef %62, ptr noundef %64, ptr noundef %11, i64 noundef 16)
  %66 = icmp ne i32 %65, 0
  br i1 %66, label %67, label %70

67:                                               ; preds = %61
  %68 = load i64, ptr %11, align 8, !tbaa !16
  %69 = icmp ne i64 %68, 16
  br i1 %69, label %70, label %71

70:                                               ; preds = %67, %61
  br label %72

71:                                               ; preds = %67
  store i32 1, ptr %13, align 4, !tbaa !8
  br label %72

72:                                               ; preds = %71, %70, %59, %44, %32
  %73 = load ptr, ptr %12, align 8, !tbaa !18
  call void @EVP_MAC_CTX_free(ptr noundef %73)
  %74 = load i32, ptr %13, align 4, !tbaa !8
  store i32 %74, ptr %5, align 4
  store i32 1, ptr %14, align 4
  br label %75

75:                                               ; preds = %72, %21
  call void @llvm.lifetime.end.p0(i64 4, ptr %13) #6
  call void @llvm.lifetime.end.p0(i64 8, ptr %12) #6
  call void @llvm.lifetime.end.p0(i64 8, ptr %11) #6
  call void @llvm.lifetime.end.p0(i64 16, ptr %10) #6
  %76 = load i32, ptr %5, align 4
  ret i32 %76
}