; Function Attrs: inlinehint nounwind uwtable
define internal fastcc range(i32 0, 2) i32 @siv128_do_s2v_p(ptr noundef captures(none) %0, ptr noundef nonnull %1, ptr noundef %2, i64 noundef %3) unnamed_addr #5 {
  %5 = alloca %union.siv_block_u, align 8
  %6 = alloca i64, align 8
  call void @llvm.lifetime.start.p0(i64 16, ptr nonnull %5) #10
  call void @llvm.lifetime.start.p0(i64 8, ptr nonnull %6) #10
  store i64 16, ptr %6, align 8, !tbaa !3
  %7 = getelementptr inbounds nuw i8, ptr %0, i64 48
  %8 = load ptr, ptr %7, align 8, !tbaa !14
  %9 = tail call ptr @EVP_MAC_CTX_dup(ptr noundef %8) #10
  %10 = icmp eq ptr %9, null
  br i1 %10, label %52, label %11

11:                                               ; preds = %4
  %12 = icmp ugt i64 %3, 15
  br i1 %12, label %13, label %27

13:                                               ; preds = %11
  %14 = add i64 %3, -16
  %15 = tail call i32 @EVP_MAC_update(ptr noundef nonnull %9, ptr noundef %2, i64 noundef %14) #10
  %.not24 = icmp eq i32 %15, 0
  br i1 %.not24, label %51, label %16

16:                                               ; preds = %13
  %17 = getelementptr inbounds nuw i8, ptr %2, i64 %14
  call void @llvm.memcpy.p0.p0.i64(ptr noundef nonnull align 8 dereferenceable(16) %5, ptr noundef nonnull align 1 dereferenceable(16) %17, i64 16, i1 false)
  %18 = load i64, ptr %0, align 8, !tbaa !23
  %19 = load i64, ptr %5, align 8, !tbaa !23
  %20 = xor i64 %19, %18
  store i64 %20, ptr %5, align 8, !tbaa !23
  %21 = getelementptr inbounds nuw i8, ptr %0, i64 8
  %22 = load i64, ptr %21, align 8, !tbaa !23
  %23 = getelementptr inbounds nuw i8, ptr %5, i64 8
  %24 = load i64, ptr %23, align 8, !tbaa !23
  %25 = xor i64 %24, %22
  store i64 %25, ptr %23, align 8, !tbaa !23
  %26 = call i32 @EVP_MAC_update(ptr noundef nonnull %9, ptr noundef nonnull %5, i64 noundef 16) #10
  %.not25 = icmp eq i32 %26, 0
  br i1 %.not25, label %51, label %46

27:                                               ; preds = %11
  call void @llvm.memset.p0.i64(ptr noundef nonnull align 8 dereferenceable(16) %5, i8 0, i64 16, i1 false)
  call void @llvm.memcpy.p0.p0.i64(ptr nonnull align 8 %5, ptr align 1 %2, i64 %3, i1 false)
  %28 = getelementptr inbounds nuw [16 x i8], ptr %5, i64 0, i64 %3
  store i8 -128, ptr %28, align 1, !tbaa !23
  %29 = load i64, ptr %0, align 8, !tbaa !23
  %30 = tail call noundef i64 @llvm.bswap.i64(i64 %29)
  %31 = getelementptr inbounds nuw i8, ptr %0, i64 8
  %32 = load i64, ptr %31, align 8, !tbaa !23
  %33 = tail call noundef i64 @llvm.bswap.i64(i64 %32)
  %isneg.i = icmp slt i64 %30, 0
  %34 = select i1 %isneg.i, i64 135, i64 0
  %35 = tail call i64 @llvm.fshl.i64(i64 %30, i64 %33, i64 1)
  %36 = shl i64 %33, 1
  %37 = xor i64 %36, %34
  %38 = tail call noundef i64 @llvm.bswap.i64(i64 %35)
  store i64 %38, ptr %0, align 8, !tbaa !23
  %39 = tail call noundef i64 @llvm.bswap.i64(i64 %37)
  store i64 %39, ptr %31, align 8, !tbaa !23
  %40 = load i64, ptr %5, align 8, !tbaa !23
  %41 = xor i64 %40, %38
  store i64 %41, ptr %5, align 8, !tbaa !23
  %42 = getelementptr inbounds nuw i8, ptr %5, i64 8
  %43 = load i64, ptr %42, align 8, !tbaa !23
  %44 = xor i64 %43, %39
  store i64 %44, ptr %42, align 8, !tbaa !23
  %45 = call i32 @EVP_MAC_update(ptr noundef nonnull %9, ptr noundef nonnull %5, i64 noundef 16) #10
  %.not = icmp eq i32 %45, 0
  br i1 %.not, label %51, label %46

46:                                               ; preds = %27, %16
  %47 = call i32 @EVP_MAC_final(ptr noundef nonnull %9, ptr noundef nonnull %1, ptr noundef nonnull %6, i64 noundef 16) #10
  %48 = icmp ne i32 %47, 0
  %49 = load i64, ptr %6, align 8
  %50 = icmp eq i64 %49, 16
  %or.cond.not = select i1 %48, i1 %50, i1 false
  %spec.select = zext i1 %or.cond.not to i32
  br label %51

51:                                               ; preds = %46, %27, %16, %13
  %.0 = phi i32 [ 0, %16 ], [ 0, %13 ], [ 0, %27 ], [ %spec.select, %46 ]
  call void @EVP_MAC_CTX_free(ptr noundef nonnull %9) #10
  br label %52

52:                                               ; preds = %4, %51
  %.021 = phi i32 [ %.0, %51 ], [ 0, %4 ]
  call void @llvm.lifetime.end.p0(i64 8, ptr nonnull %6) #10
  call void @llvm.lifetime.end.p0(i64 16, ptr nonnull %5) #10
  ret i32 %.021
}